Certificate:
    Data:
        Version: 3 (0x2)
        Serial Number: 1 (0x1)
    Signature Algorithm: sha256WithRSAEncryption
        Issuer: O=Test Org, CN=Test Org Provisioning CA Root
        Validity
            Not Before: Jan  1 00:00:00 1970 GMT
            Not After : Dec 31 23:59:59 9999 GMT
        Subject: O=Test Org, CN=Test Org Provisioning CA Root
        Subject Public Key Info:
            Public Key Algorithm: rsaEncryption
                Public-Key: (2048 bit)
                Modulus:
                    00:bb:5d:dd:22:ef:bb:be:39:d9:f0:58:13:98:41:
                    ab:12:a8:6d:a6:ef:f8:d5:a3:1f:fe:3a:92:6d:b9:
                    4d:2d:93:5d:51:2b:9a:13:aa:45:14:ac:e0:05:10:
                    91:0b:a6:a1:6a:8c:b7:e9:c4:65:94:02:ee:28:7f:
                    32:15:f4:ff:73:4f:1c:50:bc:c3:92:24:81:8d:ab:
                    db:68:e4:e1:ad:cc:92:ed:9d:9c:fe:36:28:9c:73:
                    63:43:ec:e1:17:54:94:d8:e1:25:9d:63:a7:e9:08:
                    e9:72:4a:04:47:39:1b:ac:88:50:7f:73:6f:a1:d1:
                    e4:3c:b0:3d:0d:7f:ea:21:d1:ff:83:37:3d:16:4c:
                    a8:e6:e8:d8:a5:6b:63:db:c1:07:82:d7:c2:66:c4:
                    08:3a:0c:ee:12:11:ed:72:f8:83:69:a7:45:c5:d9:
                    c2:f4:e7:0c:cd:41:33:5c:80:46:be:4f:f6:55:89:
                    24:84:eb:aa:c0:5a:3b:86:6b:e6:75:f7:cd:d9:5a:
                    67:01:5a:e4:73:ff:f4:86:d8:bb:6c:55:df:ae:4f:
                    b7:64:31:c9:15:d8:8a:d3:9c:77:3e:58:d8:d6:7b:
                    d8:43:6e:5f:5f:7b:ef:ca:de:c0:25:f7:61:b7:a5:
                    87:80:35:6a:85:22:68:df:c6:7c:9c:21:60:1b:93:
                    13:21
                Exponent: 65537 (0x10001)
        X509v3 extensions:
            X509v3 Subject Key Identifier: 
                14:4C:83:33:83:47:0A:1A:1F:8D:E1:31:BA:E7:E2:D3:2F:23:FB:86
            X509v3 Authority Key Identifier: 
                keyid:14:4C:83:33:83:47:0A:1A:1F:8D:E1:31:BA:E7:E2:D3:2F:23:FB:86
                DirName:/O=Test Org/CN=Test Org Provisioning CA Root
                serial:01

            X509v3 Basic Constraints: 
                CA:TRUE
    Signature Algorithm: sha256WithRSAEncryption
         69:3d:7c:c5:33:b2:6f:36:63:18:c1:1e:3d:31:a2:e9:49:84:
         e0:1e:cd:5e:ef:70:58:2c:d7:a2:a3:4f:ca:9d:8b:23:3c:a3:
         ec:e8:17:e6:7b:74:28:c6:7f:5c:65:dd:47:71:1c:26:8e:f9:
         17:23:58:8e:39:24:85:8e:e7:86:fd:aa:50:84:aa:b4:69:36:
         86:0c:e9:2b:76:75:fc:29:6d:2d:40:fc:b1:ff:28:9f:22:61:
         11:fd:5a:e4:aa:c9:1f:00:21:15:74:f4:fe:2e:1f:30:61:83:
         2d:46:c7:b7:44:c6:8e:c9:65:d1:8c:0b:bc:7b:48:98:34:15:
         19:aa:fc:80:6e:a3:5d:6a:7d:8a:70:82:17:ac:73:c2:d2:4d:
         a0:df:0c:cd:d4:25:dd:d4:86:0c:aa:3c:cc:56:e6:82:ec:e9:
         b3:fe:8f:ce:43:42:fa:19:db:08:55:34:09:d2:48:31:09:b2:
         92:c6:25:1f:86:91:92:5a:86:8a:05:f0:21:8b:12:80:b8:d3:
         80:75:98:1a:6a:bc:24:2d:ca:14:2f:94:07:d3:3a:9a:92:09:
         c7:60:19:3d:31:b1:14:80:88:79:38:3a:d8:fa:17:6c:f4:9f:
         e5:c7:a9:29:3a:91:5d:b5:1a:65:cf:51:aa:24:30:ea:30:fe:
         2c:12:52:22
-----BEGIN CERTIFICATE-----
MIIDizCCAnOgAwIBAgIBATANBgkqhkiG9w0BAQsFADA7MREwDwYDVQQKDAhUZXN0
IE9yZzEmMCQGA1UEAwwdVGVzdCBPcmcgUHJvdmlzaW9uaW5nIENBIFJvb3QwIhgP
MTk3MDAxMDEwMDAwMDBaGA85OTk5MTIzMTIzNTk1OVowOzERMA8GA1UECgwIVGVz
dCBPcmcxJjAkBgNVBAMMHVRlc3QgT3JnIFByb3Zpc2lvbmluZyBDQSBSb290MIIB
IjANBgkqhkiG9w0BAQEFAAOCAQ8AMIIBCgKCAQEAu13dIu+7vjnZ8FgTmEGrEqht
pu/41aMf/jqSbblNLZNdUSuaE6pFFKzgBRCRC6ahaoy36cRllALuKH8yFfT/c08c
ULzDkiSBjavbaOThrcyS7Z2c/jYonHNjQ+zhF1SU2OElnWOn6QjpckoERzkbrIhQ
f3NvodHkPLA9DX/qIdH/gzc9Fkyo5ujYpWtj28EHgtfCZsQIOgzuEhHtcviDaadF
xdnC9OcMzUEzXIBGvk/2VYkkhOuqwFo7hmvmdffN2VpnAVrkc//0hti7bFXfrk+3
ZDHJFdiK05x3PljY1nvYQ25fX3vvyt7AJfdht6WHgDVqhSJo38Z8nCFgG5MTIQID
AQABo4GVMIGSMB0GA1UdDgQWBBQUTIMzg0cKGh+N4TG65+LTLyP7hjBjBgNVHSME
XDBagBQUTIMzg0cKGh+N4TG65+LTLyP7hqE/pD0wOzERMA8GA1UECgwIVGVzdCBP
cmcxJjAkBgNVBAMMHVRlc3QgT3JnIFByb3Zpc2lvbmluZyBDQSBSb290ggEBMAwG
A1UdEwQFMAMBAf8wDQYJKoZIhvcNAQELBQADggEBAGk9fMUzsm82YxjBHj0xoulJ
hOAezV7vcFgs16KjT8qdiyM8o+zoF+Z7dCjGf1xl3UdxHCaO+RcjWI45JIWO54b9
qlCEqrRpNoYM6St2dfwpbS1A/LH/KJ8iYRH9WuSqyR8AIRV09P4uHzBhgy1Gx7dE
xo7JZdGMC7x7SJg0FRmq/IBuo11qfYpwghesc8LSTaDfDM3UJd3UhgyqPMxW5oLs
6bP+j85DQvoZ2whVNAnSSDEJspLGJR+GkZJahooF8CGLEoC404B1mBpqvCQtyhQv
lAfTOpqSCcdgGT0xsRSAiHk4Otj6F2z0n+XHqSk6kV21GmXPUaokMOow/iwSUiI=
-----END CERTIFICATE-----
-----BEGIN X509 CRL-----
MIIBgDBqMA0GCSqGSIb3DQEBCwUAMDsxETAPBgNVBAoMCFRlc3QgT3JnMSYwJAYD
VQQDDB1UZXN0IE9yZyBQcm92aXNpb25pbmcgQ0EgUm9vdBcNMTkwMTA3MDkwNDQ3
WhcNMzIwOTE1MDkwNDQ3WjANBgkqhkiG9w0BAQsFAAOCAQEAcg/MOf/KoL5yCW4s
n4YB3uJAmxI0BEQSwwQKWTsCtpDjIeSgEpwq0qIOTtBtHhdkjYjt8Vn/KJ2lrGW9
a62F9/KMVTWivK7LOzqAZ8Lew+mvFGRzwfTsGWSjxlxZTXMlADTP921AmlRU8BxH
z8P7U8JdVQOhGocxKUYXyqrnAAPQUb2edSEoOUdpz/MJ+Fr3oinl6drWDq6zTQ/q
SOCjE2vynbhZyrimX/bSrkUCvpvwkUzSr/wQtsH/ZUa9bVtqWFviD9cFMpWXeH9h
jb16+qBzlLfQIGTgNFcwjLq954k0G7aPjvd+bYTFK2C6NsYGol5wn7KFVR2+Mdg2
XXRHSw==
-----END X509 CRL-----
Certificate:
    Data:
        Version: 3 (0x2)
        Serial Number: 2 (0x2)
    Signature Algorithm: sha256WithRSAEncryption
        Issuer: O=Test Org, CN=Test Org Provisioning CA Root
        Validity
            Not Before: Jan  1 00:00:00 1970 GMT
            Not After : Dec 31 23:59:59 9999 GMT
        Subject: O=Test Org, CN=Test Org Provisioning CA Release
        Subject Public Key Info:
            Public Key Algorithm: rsaEncryption
                Public-Key: (2048 bit)
                Modulus:
                    00:9b:1d:33:e3:bc:57:50:be:43:63:bc:4e:4a:c2:
                    1f:65:c6:b1:b8:d5:ec:d6:13:a2:0a:ca:3a:77:a7:
                    fb:7a:29:1e:d6:c9:57:5c:26:17:65:d2:44:a8:49:
                    9e:6c:99:0a:dc:76:d7:1e:a0:4f:47:51:e7:79:04:
                    97:e6:35:3b:13:16:fa:ba:c2:6a:e8:8a:2f:e5:9b:
                    ee:d7:1b:2d:7f:1c:70:e4:d9:fb:74:8b:c6:67:fc:
                    de:f5:b7:4a:4b:9c:06:2d:b4:9c:35:6c:8b:ee:47:
                    ef:64:d1:ba:17:e3:01:aa:ca:7f:3a:83:37:75:d7:
                    8f:31:bf:86:ef:d1:03:09:3a:49:ca:70:af:f5:58:
                    f3:f5:0f:7c:99:46:0a:88:de:b8:ff:ef:a6:ce:14:
                    77:66:cc:36:57:4a:8c:dc:6a:6a:1d:72:d3:30:12:
                    4b:9d:4f:c1:3f:c3:a7:ff:f9:35:3b:21:e7:a4:f9:
                    ed:ac:ea:cd:98:97:19:c4:92:47:7b:22:de:ae:6a:
                    d8:d1:51:d1:57:7c:66:18:17:d4:0d:ed:c8:dc:a4:
                    b6:c7:91:e0:89:90:53:ef:55:02:a3:19:b0:49:35:
                    83:b6:3f:4a:82:1c:9b:89:3f:85:4f:bf:df:d7:fa:
                    82:2b:e0:bb:32:95:e0:5a:e3:84:19:2d:c1:37:a9:
                    61:31
                Exponent: 65537 (0x10001)
        X509v3 extensions:
            X509v3 Subject Key Identifier: 
                DD:47:DF:0A:1D:5C:70:27:F5:12:13:DB:A7:F4:F4:65:C0:3B:6A:6E
            X509v3 Authority Key Identifier: 
                keyid:14:4C:83:33:83:47:0A:1A:1F:8D:E1:31:BA:E7:E2:D3:2F:23:FB:86
                DirName:/O=Test Org/CN=Test Org Provisioning CA Root
                serial:01

            X509v3 Basic Constraints: 
                CA:TRUE, pathlen:0
    Signature Algorithm: sha256WithRSAEncryption
         a7:3b:f9:6f:a9:d1:25:02:9f:30:1c:a8:9c:05:49:d7:3d:50:
         6d:8e:71:16:17:61:25:69:47:c7:74:6d:5b:39:cc:9c:4b:ce:
         2d:59:ce:74:e4:da:11:18:70:1b:8b:57:d0:5f:fa:e2:ef:3d:
         a1:90:e4:f0:39:4f:17:ee:21:5c:30:38:ca:36:38:e4:76:91:
         c3:b0:71:da:61:2a:68:7a:82:39:3a:8c:ab:5d:0d:f7:40:3f:
         4f:35:38:3a:31:50:03:9c:d0:c6:dd:0b:9d:d4:a5:b7:df:4a:
         95:4b:35:5f:37:f2:ca:f6:04:98:88:11:24:51:b6:9c:53:54:
         b5:fb:95:f3:da:1a:83:8c:d4:0d:5e:01:2b:9c:a9:f0:ae:e7:
         e2:bc:21:71:1d:24:f6:5d:11:e5:e8:5c:3b:0c:2a:4e:26:19:
         63:0d:0a:8c:15:7d:1e:f3:67:5b:e6:54:27:a4:bd:32:98:35:
         f2:df:b5:f5:45:ff:1e:f4:a2:f7:8b:5c:52:19:a9:f5:80:84:
         ad:d8:4b:f0:20:4d:b8:a9:f9:46:b7:9f:4d:ab:ae:5e:1c:20:
         de:c9:86:91:23:68:56:27:93:c0:e7:01:24:8f:1d:ff:57:bb:
         b3:df:cf:1e:02:47:f3:22:e4:b6:4c:bb:71:5c:46:f5:66:85:
         a5:5c:11:0f
-----BEGIN CERTIFICATE-----
MIIDkTCCAnmgAwIBAgIBAjANBgkqhkiG9w0BAQsFADA7MREwDwYDVQQKDAhUZXN0
IE9yZzEmMCQGA1UEAwwdVGVzdCBPcmcgUHJvdmlzaW9uaW5nIENBIFJvb3QwIhgP
MTk3MDAxMDEwMDAwMDBaGA85OTk5MTIzMTIzNTk1OVowPjERMA8GA1UECgwIVGVz
dCBPcmcxKTAnBgNVBAMMIFRlc3QgT3JnIFByb3Zpc2lvbmluZyBDQSBSZWxlYXNl
MIIBIjANBgkqhkiG9w0BAQEFAAOCAQ8AMIIBCgKCAQEAmx0z47xXUL5DY7xOSsIf
ZcaxuNXs1hOiCso6d6f7eike1slXXCYXZdJEqEmebJkK3HbXHqBPR1HneQSX5jU7
Exb6usJq6Iov5Zvu1xstfxxw5Nn7dIvGZ/ze9bdKS5wGLbScNWyL7kfvZNG6F+MB
qsp/OoM3ddePMb+G79EDCTpJynCv9Vjz9Q98mUYKiN64/++mzhR3Zsw2V0qM3Gpq
HXLTMBJLnU/BP8On//k1OyHnpPntrOrNmJcZxJJHeyLermrY0VHRV3xmGBfUDe3I
3KS2x5HgiZBT71UCoxmwSTWDtj9KghybiT+FT7/f1/qCK+C7MpXgWuOEGS3BN6lh
MQIDAQABo4GYMIGVMB0GA1UdDgQWBBTdR98KHVxwJ/USE9un9PRlwDtqbjBjBgNV
HSMEXDBagBQUTIMzg0cKGh+N4TG65+LTLyP7hqE/pD0wOzERMA8GA1UECgwIVGVz
dCBPcmcxJjAkBgNVBAMMHVRlc3QgT3JnIFByb3Zpc2lvbmluZyBDQSBSb290ggEB
MA8GA1UdEwQIMAYBAf8CAQAwDQYJKoZIhvcNAQELBQADggEBAKc7+W+p0SUCnzAc
qJwFSdc9UG2OcRYXYSVpR8d0bVs5zJxLzi1ZznTk2hEYcBuLV9Bf+uLvPaGQ5PA5
TxfuIVwwOMo2OOR2kcOwcdphKmh6gjk6jKtdDfdAP081ODoxUAOc0MbdC53Upbff
SpVLNV838sr2BJiIESRRtpxTVLX7lfPaGoOM1A1eASucqfCu5+K8IXEdJPZdEeXo
XDsMKk4mGWMNCowVfR7zZ1vmVCekvTKYNfLftfVF/x70oveLXFIZqfWAhK3YS/Ag
Tbip+Ua3n02rrl4cIN7JhpEjaFYnk8DnASSPHf9Xu7Pfzx4CR/Mi5LZMu3FcRvVm
haVcEQ8=
-----END CERTIFICATE-----
-----BEGIN X509 CRL-----
MIIBgzBtMA0GCSqGSIb3DQEBCwUAMD4xETAPBgNVBAoMCFRlc3QgT3JnMSkwJwYD
VQQDDCBUZXN0IE9yZyBQcm92aXNpb25pbmcgQ0EgUmVsZWFzZRcNMTkwMTA3MDkw
NDQ3WhcNMzIwOTE1MDkwNDQ3WjANBgkqhkiG9w0BAQsFAAOCAQEAHvIy5dQFPFkQ
sNVkOxKsDrEbQTkqAb3tMtZ+VMavzk1EmtFxR6PolIsQhNt+h4GXKpd4EvXzXFTT
TqGcRuDrATok5gMKkH+ixGg1SdsirrGCPgxjnaVHYFY/P84ZWiL09Yw8pUEGwuPJ
1IoAQ7ZXj2812mhzcWYaTmx5cuA5jQPxCf1lSPtvsjHlg234z1zUdREJNTo6OD77
WjlqjS5SKnc9JtG1Js2LM+7VHYmlWU7s+d7tp2Ot62p9sxOrt84HKR/ll7j8xXGL
Du904GmScA0Z9Tn1ip1f5VOaJy3pMbr/xZBu6xx7Huyp9bfXdlQFAPmRyzJoPAhG
JO6cbsFFTA==
-----END X509 CRL-----
Certificate:
    Data:
        Version: 3 (0x2)
        Serial Number: 3 (0x3)
    Signature Algorithm: sha256WithRSAEncryption
        Issuer: O=Test Org, CN=Test Org Provisioning CA Root
        Validity
            Not Before: Jan  1 00:00:00 1970 GMT
            Not After : Dec 31 23:59:59 9999 GMT
        Subject: O=Test Org, CN=Test Org Provisioning CA Development
        Subject Public Key Info:
            Public Key Algorithm: rsaEncryption
                Public-Key: (2048 bit)
                Modulus:
                    00:cc:b3:b0:5c:0f:bb:4a:59:a1:d5:db:a4:9a:24:
                    a8:18:41:1b:fa:5b:0e:2b:f0:79:fa:f7:0f:7f:eb:
                    c2:a3:74:be:a2:bf:7c:48:98:e2:44:84:6c:a8:62:
                    49:f7:bf:cd:7d:8f:c5:88:4e:ab:92:ea:f7:52:19:
                    b1:f6:13:02:9b:8c:22:c9:5c:24:13:a9:27:8a:64:
                    b1:b8:b1:79:a0:c6:4e:fd:85:3e:6a:60:66:66:62:
                    d4:f3:6a:61:86:03:5b:96:e9:34:f0:88:04:8b:b3:
                    2c:1e:76:b3:a3:09:89:b4:64:3d:d9:6d:ba:13:0a:
                    ad:32:27:6e:34:ff:9f:70:b1:cf:46:63:a3:e1:52:
                    df:7e:c7:e6:0c:5a:69:a5:ea:15:d2:31:cf:ea:6e:
                    8c:69:1a:b1:78:59:db:5f:50:09:18:05:50:96:21:
                    8e:f4:5a:fd:0a:c4:f6:17:c5:3d:a5:59:fb:00:70:
                    7f:d3:ca:6c:3e:d1:4c:0e:dc:56:c3:92:df:45:16:
                    1e:eb:1c:26:d7:5f:d1:7f:5c:7c:87:9d:13:70:0d:
                    56:22:07:50:71:73:0c:37:3e:e7:75:c6:3c:06:8f:
                    f3:dd:93:34:67:18:5e:ea:b5:c3:41:9b:ea:d4:db:
                    e1:5f:5e:ba:01:1b:de:f6:96:63:d2:3b:c8:1e:e5:
                    ff:dd
                Exponent: 65537 (0x10001)
        X509v3 extensions:
            X509v3 Subject Key Identifier: 
                2F:31:70:5F:AE:A7:53:3B:B7:5E:04:01:BF:C1:D3:A8:8D:47:7E:3F
            X509v3 Authority Key Identifier: 
                keyid:14:4C:83:33:83:47:0A:1A:1F:8D:E1:31:BA:E7:E2:D3:2F:23:FB:86
                DirName:/O=Test Org/CN=Test Org Provisioning CA Root
                serial:01

            X509v3 Basic Constraints: 
                CA:TRUE, pathlen:0
    Signature Algorithm: sha256WithRSAEncryption
         b8:f3:94:75:f6:ce:1d:73:75:0f:c0:a3:3f:55:a4:ff:19:49:
         9e:96:0f:6a:b5:e2:e9:a4:9d:17:44:fa:92:1d:14:8d:a9:da:
         38:b6:a5:06:68:4c:67:73:97:b3:45:9d:5c:d9:85:50:0a:a6:
         3b:e3:09:c6:3b:8d:39:8f:21:bb:23:eb:6b:25:3f:27:28:a8:
         77:cb:fe:49:13:a7:ba:c6:7b:3f:e0:b3:ea:dc:5c:f9:1e:97:
         51:6a:76:a3:dd:ee:d0:6b:d0:44:03:c3:9e:da:66:8e:91:d4:
         50:f9:e5:4e:44:02:22:de:b6:8d:33:76:0d:63:91:f7:3f:fb:
         4f:53:01:27:f8:89:03:09:a1:0e:cf:21:db:33:30:bf:c0:bd:
         db:86:9a:f4:a4:bc:b8:15:ad:21:0b:97:9c:cb:65:5c:e6:56:
         ce:3e:22:ec:f3:77:45:01:40:97:48:f4:e2:c5:c0:a0:bb:de:
         50:22:7b:25:f0:09:11:39:34:6b:9d:40:fc:e4:ff:89:a2:5e:
         e0:b8:c2:a2:8c:45:cc:63:1e:f2:1b:cf:bd:36:34:3b:08:e5:
         3a:66:9d:61:9f:71:64:32:b4:ef:07:80:6e:35:1b:40:49:8a:
         0d:0d:6c:b2:d7:0c:c5:94:2e:72:2b:a8:88:bc:85:05:08:73:
         4a:63:a3:80
-----BEGIN CERTIFICATE-----
MIIDlTCCAn2gAwIBAgIBAzANBgkqhkiG9w0BAQsFADA7MREwDwYDVQQKDAhUZXN0
IE9yZzEmMCQGA1UEAwwdVGVzdCBPcmcgUHJvdmlzaW9uaW5nIENBIFJvb3QwIhgP
MTk3MDAxMDEwMDAwMDBaGA85OTk5MTIzMTIzNTk1OVowQjERMA8GA1UECgwIVGVz
dCBPcmcxLTArBgNVBAMMJFRlc3QgT3JnIFByb3Zpc2lvbmluZyBDQSBEZXZlbG9w
bWVudDCCASIwDQYJKoZIhvcNAQEBBQADggEPADCCAQoCggEBAMyzsFwPu0pZodXb
pJokqBhBG/pbDivwefr3D3/rwqN0vqK/fEiY4kSEbKhiSfe/zX2PxYhOq5Lq91IZ
sfYTApuMIslcJBOpJ4pksbixeaDGTv2FPmpgZmZi1PNqYYYDW5bpNPCIBIuzLB52
s6MJibRkPdltuhMKrTInbjT/n3Cxz0Zjo+FS337H5gxaaaXqFdIxz+pujGkasXhZ
219QCRgFUJYhjvRa/QrE9hfFPaVZ+wBwf9PKbD7RTA7cVsOS30UWHuscJtdf0X9c
fIedE3ANViIHUHFzDDc+53XGPAaP892TNGcYXuq1w0Gb6tTb4V9eugEb3vaWY9I7
yB7l/90CAwEAAaOBmDCBlTAdBgNVHQ4EFgQULzFwX66nUzu3XgQBv8HTqI1Hfj8w
YwYDVR0jBFwwWoAUFEyDM4NHChofjeExuufi0y8j+4ahP6Q9MDsxETAPBgNVBAoM
CFRlc3QgT3JnMSYwJAYDVQQDDB1UZXN0IE9yZyBQcm92aXNpb25pbmcgQ0EgUm9v
dIIBATAPBgNVHRMECDAGAQH/AgEAMA0GCSqGSIb3DQEBCwUAA4IBAQC485R19s4d
c3UPwKM/VaT/GUmelg9qteLppJ0XRPqSHRSNqdo4tqUGaExnc5ezRZ1c2YVQCqY7
4wnGO405jyG7I+trJT8nKKh3y/5JE6e6xns/4LPq3Fz5HpdRanaj3e7Qa9BEA8Oe
2maOkdRQ+eVORAIi3raNM3YNY5H3P/tPUwEn+IkDCaEOzyHbMzC/wL3bhpr0pLy4
Fa0hC5ecy2Vc5lbOPiLs83dFAUCXSPTixcCgu95QInsl8AkROTRrnUD85P+Jol7g
uMKijEXMYx7yG8+9NjQ7COU6Zp1hn3FkMrTvB4BuNRtASYoNDWyy1wzFlC5yK6iI
vIUFCHNKY6OA
-----END CERTIFICATE-----
-----BEGIN X509 CRL-----
MIIBnjCBhzANBgkqhkiG9w0BAQsFADBCMREwDwYDVQQKDAhUZXN0IE9yZzEtMCsG
A1UEAwwkVGVzdCBPcmcgUHJvdmlzaW9uaW5nIENBIERldmVsb3BtZW50Fw0xOTAx
MDcwOTA0NDdaFw0zMjA5MTUwOTA0NDdaMBQwEgIBAhcNMTkwMTA3MDkwNDQ3WjAN
BgkqhkiG9w0BAQsFAAOCAQEAIn0DGln4JSwd5LByp/Vb2ODg3gK+M2X/NWBE/3ZC
bA/0xq7ocefVvrtLhOf2VI2BcYZLCOClnFHEWDN74zmIHIky4DO4oBxV3u8Zh6uG
fM/qOk0T0mfQnXM6uF48JV1VcKZbssIIY+Vv+IvXRziHt7kGS5xbWqLJqubEujXx
alfl2DzIoGe4e8s7rSd25fK+4s6XpOZxF9HKDXCqWjieAAo54GqFKhaNhB67723t
5NtgLNyhV3O8tBeKMXcvC3TH7IgQti50DqZJemw/Al12FZOZMMnxaHqwwlM0YeuA
6g6531pdESSDVb31yWfufuvB5rpkPTD77KqxVLHNVbKwcg==
-----END X509 CRL-----
